; Function Attrs: mustprogress nofree norecurse nosync nounwind willreturn memory(argmem: write) uwtable
define dso_local void @_ZN5clang18CXXCtorInitializerC2ERNS_10ASTContextEPNS_14TypeSourceInfoENS_14SourceLocationEPNS_4ExprES5_(ptr noundef nonnull writeonly align 8 captures(none) dereferenceable(32) initializes((0, 30)) %0, ptr nonnull readnone align 8 captures(none) %1, ptr noundef %2, i32 %3, ptr noundef %4, i32 %5) unnamed_addr #11 align 2 {
  %7 = ptrtoint ptr %2 to i64
  %8 = and i64 %7, -7
  store i64 %8, ptr %0, align 8
  %9 = getelementptr inbounds nuw i8, ptr %0, i64 8
  store ptr %4, ptr %9, align 8
  %10 = getelementptr inbounds nuw i8, ptr %0, i64 16
  store i32 0, ptr %10, align 8
  %11 = getelementptr inbounds nuw i8, ptr %0, i64 20
  store i32 %3, ptr %11, align 4
  %12 = getelementptr inbounds nuw i8, ptr %0, i64 24
  store i32 %5, ptr %12, align 8
  %13 = getelementptr inbounds nuw i8, ptr %0, i64 28
  store i16 1, ptr %13, align 4
  ret void
}